; Function Attrs: mustprogress uwtable
define internal fastcc void @"_ZSt25__unguarded_linear_insertIN9__gnu_cxx17__normal_iteratorIPN5zxing3RefINS2_6qrcode17FinderPatternInfoEEESt6vectorIS6_SaIS6_EEEENS0_5__ops14_Val_comp_iterIZNS4_19FinderPatternFinder4findERKNS2_11DecodeHintsERNS2_12ErrorHandlerEE3$_0EEEvT_T0_"(ptr nocapture %0) unnamed_addr #0 personality ptr @__gxx_personality_v0 {
  %2 = load ptr, ptr %0, align 8
  %.not.i.i = icmp eq ptr %2, null
  br i1 %.not.i.i, label %_ZN5zxing3RefINS_6qrcode17FinderPatternInfoEEC2ERKS3_.exit, label %3

3:                                                ; preds = %1
  %4 = getelementptr inbounds i8, ptr %2, i64 8
  %5 = load i32, ptr %4, align 8
  %6 = add i32 %5, 1
  store i32 %6, ptr %4, align 8
  br label %_ZN5zxing3RefINS_6qrcode17FinderPatternInfoEEC2ERKS3_.exit

_ZN5zxing3RefINS_6qrcode17FinderPatternInfoEEC2ERKS3_.exit: ; preds = %3, %1
  %7 = getelementptr inbounds i8, ptr %2, i64 8
  br label %8

8:                                                ; preds = %73, %_ZN5zxing3RefINS_6qrcode17FinderPatternInfoEEC2ERKS3_.exit
  %.sroa.013.0 = phi ptr [ %0, %_ZN5zxing3RefINS_6qrcode17FinderPatternInfoEEC2ERKS3_.exit ], [ %.sroa.0.0, %73 ]
  %.sroa.0.0 = getelementptr inbounds i8, ptr %.sroa.013.0, i64 -8
  br i1 %.not.i.i, label %_ZN5zxing3RefINS_6qrcode17FinderPatternInfoEEC2ERKS3_.exit.i, label %9

9:                                                ; preds = %8
  %10 = load i32, ptr %7, align 8
  %11 = add i32 %10, 1
  store i32 %11, ptr %7, align 8
  br label %_ZN5zxing3RefINS_6qrcode17FinderPatternInfoEEC2ERKS3_.exit.i

_ZN5zxing3RefINS_6qrcode17FinderPatternInfoEEC2ERKS3_.exit.i: ; preds = %9, %8
  %12 = load ptr, ptr %.sroa.0.0, align 8
  %.not.i.i5.i = icmp eq ptr %12, null
  br i1 %.not.i.i5.i, label %_ZN5zxing3RefINS_6qrcode17FinderPatternInfoEEC2ERKS3_.exit8.i, label %13

13:                                               ; preds = %_ZN5zxing3RefINS_6qrcode17FinderPatternInfoEEC2ERKS3_.exit.i
  %14 = getelementptr inbounds i8, ptr %12, i64 8
  %15 = load i32, ptr %14, align 8
  %16 = add i32 %15, 1
  store i32 %16, ptr %14, align 8
  br label %_ZN5zxing3RefINS_6qrcode17FinderPatternInfoEEC2ERKS3_.exit8.i

_ZN5zxing3RefINS_6qrcode17FinderPatternInfoEEC2ERKS3_.exit8.i: ; preds = %13, %_ZN5zxing3RefINS_6qrcode17FinderPatternInfoEEC2ERKS3_.exit.i
  %17 = invoke noundef float @_ZN5zxing6qrcode17FinderPatternInfo14getPossibleFixEv(ptr noundef nonnull align 8 dereferenceable(48) %2)
          to label %.noexc.i unwind label %35

.noexc.i:                                         ; preds = %_ZN5zxing3RefINS_6qrcode17FinderPatternInfoEEC2ERKS3_.exit8.i
  %18 = invoke noundef float @_ZN5zxing6qrcode17FinderPatternInfo14getPossibleFixEv(ptr noundef nonnull align 8 dereferenceable(48) %12)
          to label %19 unwind label %35

19:                                               ; preds = %.noexc.i
  %20 = getelementptr inbounds i8, ptr %12, i64 8
  %21 = load i32, ptr %20, align 8
  %22 = add i32 %21, -1
  store i32 %22, ptr %20, align 8
  %23 = icmp eq i32 %22, 0
  br i1 %23, label %24, label %_ZN5zxing3RefINS_6qrcode17FinderPatternInfoEED2Ev.exit.i

24:                                               ; preds = %19
  store i32 -559026175, ptr %20, align 8
  %25 = load ptr, ptr %12, align 8
  %26 = getelementptr inbounds i8, ptr %25, i64 8
  %27 = load ptr, ptr %26, align 8
  tail call void %27(ptr noundef nonnull align 8 dereferenceable(12) %12) #22
  br label %_ZN5zxing3RefINS_6qrcode17FinderPatternInfoEED2Ev.exit.i

_ZN5zxing3RefINS_6qrcode17FinderPatternInfoEED2Ev.exit.i: ; preds = %24, %19
  %28 = load i32, ptr %7, align 8
  %29 = add i32 %28, -1
  store i32 %29, ptr %7, align 8
  %30 = icmp eq i32 %29, 0
  br i1 %30, label %31, label %54

31:                                               ; preds = %_ZN5zxing3RefINS_6qrcode17FinderPatternInfoEED2Ev.exit.i
  store i32 -559026175, ptr %7, align 8
  %32 = load ptr, ptr %2, align 8
  %33 = getelementptr inbounds i8, ptr %32, i64 8
  %34 = load ptr, ptr %33, align 8
  tail call void %34(ptr noundef nonnull align 8 dereferenceable(12) %2) #22
  br label %54

35:                                               ; preds = %.noexc.i, %_ZN5zxing3RefINS_6qrcode17FinderPatternInfoEEC2ERKS3_.exit8.i
  %36 = landingpad { ptr, i32 }
          cleanup
  br i1 %.not.i.i5.i, label %_ZN5zxing3RefINS_6qrcode17FinderPatternInfoEED2Ev.exit13.i, label %37

37:                                               ; preds = %35
  %38 = getelementptr inbounds i8, ptr %12, i64 8
  %39 = load i32, ptr %38, align 8
  %40 = add i32 %39, -1
  store i32 %40, ptr %38, align 8
  %41 = icmp eq i32 %40, 0
  br i1 %41, label %42, label %_ZN5zxing3RefINS_6qrcode17FinderPatternInfoEED2Ev.exit13.i

42:                                               ; preds = %37
  store i32 -559026175, ptr %38, align 8
  %43 = load ptr, ptr %12, align 8
  %44 = getelementptr inbounds i8, ptr %43, i64 8
  %45 = load ptr, ptr %44, align 8
  tail call void %45(ptr noundef nonnull align 8 dereferenceable(12) %12) #22
  br label %_ZN5zxing3RefINS_6qrcode17FinderPatternInfoEED2Ev.exit13.i

_ZN5zxing3RefINS_6qrcode17FinderPatternInfoEED2Ev.exit13.i: ; preds = %42, %37, %35
  br i1 %.not.i.i, label %_ZN5zxing3RefINS_6qrcode17FinderPatternInfoEED2Ev.exit, label %46

46:                                               ; preds = %_ZN5zxing3RefINS_6qrcode17FinderPatternInfoEED2Ev.exit13.i
  %47 = load i32, ptr %7, align 8
  %48 = add i32 %47, -1
  store i32 %48, ptr %7, align 8
  %49 = icmp eq i32 %48, 0
  br i1 %49, label %50, label %74

50:                                               ; preds = %46
  store i32 -559026175, ptr %7, align 8
  %51 = load ptr, ptr %2, align 8
  %52 = getelementptr inbounds i8, ptr %51, i64 8
  %53 = load ptr, ptr %52, align 8
  tail call void %53(ptr noundef nonnull align 8 dereferenceable(12) %2) #22
  %.pre = load i32, ptr %7, align 8
  br label %74

54:                                               ; preds = %31, %_ZN5zxing3RefINS_6qrcode17FinderPatternInfoEED2Ev.exit.i
  %55 = fcmp ogt float %17, %18
  br i1 %55, label %56, label %82

56:                                               ; preds = %54
  %57 = load ptr, ptr %.sroa.0.0, align 8
  %.not.i.i1 = icmp eq ptr %57, null
  br i1 %.not.i.i1, label %62, label %58

58:                                               ; preds = %56
  %59 = getelementptr inbounds i8, ptr %57, i64 8
  %60 = load i32, ptr %59, align 8
  %61 = add i32 %60, 1
  store i32 %61, ptr %59, align 8
  br label %62

62:                                               ; preds = %58, %56
  %63 = load ptr, ptr %.sroa.013.0, align 8
  %.not5.i.i2 = icmp eq ptr %63, null
  br i1 %.not5.i.i2, label %73, label %64

64:                                               ; preds = %62
  %65 = getelementptr inbounds i8, ptr %63, i64 8
  %66 = load i32, ptr %65, align 8
  %67 = add i32 %66, -1
  store i32 %67, ptr %65, align 8
  %68 = icmp eq i32 %67, 0
  br i1 %68, label %69, label %73

69:                                               ; preds = %64
  store i32 -559026175, ptr %65, align 8
  %70 = load ptr, ptr %63, align 8
  %71 = getelementptr inbounds i8, ptr %70, i64 8
  %72 = load ptr, ptr %71, align 8
  tail call void %72(ptr noundef nonnull align 8 dereferenceable(12) %63) #22
  br label %73

73:                                               ; preds = %69, %64, %62
  store ptr %57, ptr %.sroa.013.0, align 8
  br label %8, !llvm.loop !89

74:                                               ; preds = %46, %50
  %75 = phi i32 [ %48, %46 ], [ %.pre, %50 ]
  %76 = add i32 %75, -1
  store i32 %76, ptr %7, align 8
  %77 = icmp eq i32 %76, 0
  br i1 %77, label %78, label %_ZN5zxing3RefINS_6qrcode17FinderPatternInfoEED2Ev.exit

78:                                               ; preds = %74
  store i32 -559026175, ptr %7, align 8
  %79 = load ptr, ptr %2, align 8
  %80 = getelementptr inbounds i8, ptr %79, i64 8
  %81 = load ptr, ptr %80, align 8
  tail call void %81(ptr noundef nonnull align 8 dereferenceable(12) %2) #22
  br label %_ZN5zxing3RefINS_6qrcode17FinderPatternInfoEED2Ev.exit

_ZN5zxing3RefINS_6qrcode17FinderPatternInfoEED2Ev.exit: ; preds = %_ZN5zxing3RefINS_6qrcode17FinderPatternInfoEED2Ev.exit13.i, %74, %78
  resume { ptr, i32 } %36

82:                                               ; preds = %54
  %83 = load i32, ptr %7, align 8
  %84 = add i32 %83, 1
  store i32 %84, ptr %7, align 8
  %85 = load ptr, ptr %.sroa.013.0, align 8
  %.not5.i.i4 = icmp eq ptr %85, null
  br i1 %.not5.i.i4, label %95, label %86

86:                                               ; preds = %82
  %87 = getelementptr inbounds i8, ptr %85, i64 8
  %88 = load i32, ptr %87, align 8
  %89 = add i32 %88, -1
  store i32 %89, ptr %87, align 8
  %90 = icmp eq i32 %89, 0
  br i1 %90, label %91, label %95

91:                                               ; preds = %86
  store i32 -559026175, ptr %87, align 8
  %92 = load ptr, ptr %85, align 8
  %93 = getelementptr inbounds i8, ptr %92, i64 8
  %94 = load ptr, ptr %93, align 8
  tail call void %94(ptr noundef nonnull align 8 dereferenceable(12) %85) #22
  br label %95

95:                                               ; preds = %82, %86, %91
  store ptr %2, ptr %.sroa.013.0, align 8
  %96 = load i32, ptr %7, align 8
  %97 = add i32 %96, -1
  store i32 %97, ptr %7, align 8
  %98 = icmp eq i32 %97, 0
  br i1 %98, label %99, label %_ZN5zxing3RefINS_6qrcode17FinderPatternInfoEED2Ev.exit7

99:                                               ; preds = %95
  store i32 -559026175, ptr %7, align 8
  %100 = load ptr, ptr %2, align 8
  %101 = getelementptr inbounds i8, ptr %100, i64 8
  %102 = load ptr, ptr %101, align 8
  tail call void %102(ptr noundef nonnull align 8 dereferenceable(12) %2) #22
  br label %_ZN5zxing3RefINS_6qrcode17FinderPatternInfoEED2Ev.exit7

_ZN5zxing3RefINS_6qrcode17FinderPatternInfoEED2Ev.exit7: ; preds = %95, %99
  ret void
}